target datalayout = "e-m:e-p270:32:32-p271:32:32-p272:64:64-i64:64-i128:128-f80:128-n8:16:32:64-S128"
target triple = "x86_64-pc-linux-gnu"

; Function Attrs: nounwind uwtable
define internal i64 @_out_rev(ptr noundef %0, ptr noundef %1, i64 noundef %2, i64 noundef %3, ptr noundef %4, i64 noundef %5, i32 noundef %6, i32 noundef %7) #0 {
  %9 = alloca ptr, align 8
  %10 = alloca ptr, align 8
  %11 = alloca i64, align 8
  %12 = alloca i64, align 8
  %13 = alloca ptr, align 8
  %14 = alloca i64, align 8
  %15 = alloca i32, align 4
  %16 = alloca i32, align 4
  %17 = alloca i64, align 8
  %18 = alloca i64, align 8
  store ptr %0, ptr %9, align 8, !tbaa !12
  store ptr %1, ptr %10, align 8, !tbaa !3
  store i64 %2, ptr %11, align 8, !tbaa !8
  store i64 %3, ptr %12, align 8, !tbaa !8
  store ptr %4, ptr %13, align 8, !tbaa !3
  store i64 %5, ptr %14, align 8, !tbaa !8
  store i32 %6, ptr %15, align 4, !tbaa !10
  store i32 %7, ptr %16, align 4, !tbaa !10
  call void @llvm.lifetime.start.p0(i64 8, ptr %17) #5
  %19 = load i64, ptr %11, align 8, !tbaa !8
  store i64 %19, ptr %17, align 8, !tbaa !8
  %20 = load i32, ptr %16, align 4, !tbaa !10
  %21 = and i32 %20, 2
  %22 = icmp ne i32 %21, 0
  br i1 %22, label %44, label %23

23:                                               ; preds = %8
  %24 = load i32, ptr %16, align 4, !tbaa !10
  %25 = and i32 %24, 1
  %26 = icmp ne i32 %25, 0
  br i1 %26, label %44, label %27

27:                                               ; preds = %23
  call void @llvm.lifetime.start.p0(i64 8, ptr %18) #5
  %28 = load i64, ptr %14, align 8, !tbaa !8
  store i64 %28, ptr %18, align 8, !tbaa !8
  br label %29

29:                                               ; preds = %40, %27
  %30 = load i64, ptr %18, align 8, !tbaa !8
  %31 = load i32, ptr %15, align 4, !tbaa !10
  %32 = zext i32 %31 to i64
  %33 = icmp ult i64 %30, %32
  br i1 %33, label %34, label %43

34:                                               ; preds = %29
  %35 = load ptr, ptr %9, align 8, !tbaa !12
  %36 = load ptr, ptr %10, align 8, !tbaa !3
  %37 = load i64, ptr %11, align 8, !tbaa !8
  %38 = add i64 %37, 1
  store i64 %38, ptr %11, align 8, !tbaa !8
  %39 = load i64, ptr %12, align 8, !tbaa !8
  call void %35(i8 noundef signext 32, ptr noundef %36, i64 noundef %37, i64 noundef %39)
  br label %40

40:                                               ; preds = %34
  %41 = load i64, ptr %18, align 8, !tbaa !8
  %42 = add i64 %41, 1
  store i64 %42, ptr %18, align 8, !tbaa !8
  br label %29, !llvm.loop !49

43:                                               ; preds = %29
  call void @llvm.lifetime.end.p0(i64 8, ptr %18) #5
  br label %44

44:                                               ; preds = %43, %23, %8
  br label %45

45:                                               ; preds = %48, %44
  %46 = load i64, ptr %14, align 8, !tbaa !8
  %47 = icmp ne i64 %46, 0
  br i1 %47, label %48, label %59

48:                                               ; preds = %45
  %49 = load ptr, ptr %9, align 8, !tbaa !12
  %50 = load ptr, ptr %13, align 8, !tbaa !3
  %51 = load i64, ptr %14, align 8, !tbaa !8
  %52 = add i64 %51, -1
  store i64 %52, ptr %14, align 8, !tbaa !8
  %53 = getelementptr inbounds nuw i8, ptr %50, i64 %52
  %54 = load i8, ptr %53, align 1, !tbaa !15
  %55 = load ptr, ptr %10, align 8, !tbaa !3
  %56 = load i64, ptr %11, align 8, !tbaa !8
  %57 = add i64 %56, 1
  store i64 %57, ptr %11, align 8, !tbaa !8
  %58 = load i64, ptr %12, align 8, !tbaa !8
  call void %49(i8 noundef signext %54, ptr noundef %55, i64 noundef %56, i64 noundef %58)
  br label %45, !llvm.loop !50

59:                                               ; preds = %45
  %60 = load i32, ptr %16, align 4, !tbaa !10
  %61 = and i32 %60, 2
  %62 = icmp ne i32 %61, 0
  br i1 %62, label %63, label %78

63:                                               ; preds = %59
  br label %64

64:                                               ; preds = %71, %63
  %65 = load i64, ptr %11, align 8, !tbaa !8
  %66 = load i64, ptr %17, align 8, !tbaa !8
  %67 = sub i64 %65, %66
  %68 = load i32, ptr %15, align 4, !tbaa !10
  %69 = zext i32 %68 to i64
  %70 = icmp ult i64 %67, %69
  br i1 %70, label %71, label %77

71:                                               ; preds = %64
  %72 = load ptr, ptr %9, align 8, !tbaa !12
  %73 = load ptr, ptr %10, align 8, !tbaa !3
  %74 = load i64, ptr %11, align 8, !tbaa !8
  %75 = add i64 %74, 1
  store i64 %75, ptr %11, align 8, !tbaa !8
  %76 = load i64, ptr %12, align 8, !tbaa !8
  call void %72(i8 noundef signext 32, ptr noundef %73, i64 noundef %74, i64 noundef %76)
  br label %64, !llvm.loop !51

77:                                               ; preds = %64
  br label %78

78:                                               ; preds = %77, %59
  %79 = load i64, ptr %11, align 8, !tbaa !8
  call void @llvm.lifetime.end.p0(i64 8, ptr %17) #5
  ret i64 %79
}