; Function Attrs: nounwind uwtable
define internal fastcc noundef i64 @_out_rev(ptr noundef readonly captures(none) %0, ptr noundef %1, i64 noundef %2, i64 noundef %3, ptr noundef readonly captures(none) %4, i64 noundef %5, i32 noundef %6, i32 noundef %7) unnamed_addr #0 {
  %9 = and i32 %7, 2
  %.not = icmp eq i32 %9, 0
  %10 = and i32 %7, 3
  %or.cond = icmp eq i32 %10, 0
  br i1 %or.cond, label %.preheader30, label %.loopexit31

.preheader30:                                     ; preds = %8
  %11 = zext i32 %6 to i64
  %12 = icmp ult i64 %5, %11
  br i1 %12, label %.lr.ph, label %.loopexit31

.lr.ph:                                           ; preds = %.preheader30, %.lr.ph
  %.033 = phi i64 [ %14, %.lr.ph ], [ %5, %.preheader30 ]
  %.132 = phi i64 [ %13, %.lr.ph ], [ %2, %.preheader30 ]
  %13 = add i64 %.132, 1
  tail call void %0(i8 noundef signext 32, ptr noundef %1, i64 noundef %.132, i64 noundef %3) #8, !callees !6
  %14 = add i64 %.033, 1
  %exitcond.not = icmp eq i64 %14, %11
  br i1 %exitcond.not, label %.loopexit31, label %.lr.ph, !llvm.loop !35

.loopexit31:                                      ; preds = %.lr.ph, %.preheader30, %8
  %.026 = phi i64 [ %2, %8 ], [ %2, %.preheader30 ], [ %13, %.lr.ph ]
  %.not2934 = icmp eq i64 %5, 0
  br i1 %.not2934, label %._crit_edge, label %.lr.ph37

.lr.ph37:                                         ; preds = %.loopexit31, %.lr.ph37
  %.236 = phi i64 [ %18, %.lr.ph37 ], [ %.026, %.loopexit31 ]
  %.02735 = phi i64 [ %15, %.lr.ph37 ], [ %5, %.loopexit31 ]
  %15 = add i64 %.02735, -1
  %16 = getelementptr inbounds nuw i8, ptr %4, i64 %15
  %17 = load i8, ptr %16, align 1, !tbaa !3
  %18 = add i64 %.236, 1
  tail call void %0(i8 noundef signext %17, ptr noundef %1, i64 noundef %.236, i64 noundef %3) #8, !callees !6
  %.not29 = icmp eq i64 %15, 0
  br i1 %.not29, label %._crit_edge, label %.lr.ph37, !llvm.loop !36

._crit_edge:                                      ; preds = %.lr.ph37, %.loopexit31
  %.2.lcssa = phi i64 [ %.026, %.loopexit31 ], [ %18, %.lr.ph37 ]
  br i1 %.not, label %.loopexit, label %.preheader

.preheader:                                       ; preds = %._crit_edge
  %19 = zext i32 %6 to i64
  %20 = sub i64 %.2.lcssa, %2
  %21 = icmp ult i64 %20, %19
  br i1 %21, label %.lr.ph40, label %.loopexit

.lr.ph40:                                         ; preds = %.preheader, %.lr.ph40
  %.439 = phi i64 [ %22, %.lr.ph40 ], [ %.2.lcssa, %.preheader ]
  %22 = add i64 %.439, 1
  tail call void %0(i8 noundef signext 32, ptr noundef %1, i64 noundef %.439, i64 noundef %3) #8, !callees !6
  %23 = sub i64 %22, %2
  %24 = icmp ult i64 %23, %19
  br i1 %24, label %.lr.ph40, label %.loopexit, !llvm.loop !37

.loopexit:                                        ; preds = %.lr.ph40, %.preheader, %._crit_edge
  %.3 = phi i64 [ %.2.lcssa, %._crit_edge ], [ %.2.lcssa, %.preheader ], [ %22, %.lr.ph40 ]
  ret i64 %.3
}